; Function Attrs: nounwind uwtable
define i32 @gzsetparams(ptr noundef %0, i32 noundef %1, i32 noundef %2) local_unnamed_addr #0 {
  %4 = icmp eq ptr %0, null
  br i1 %4, label %gz_zero.exit.thread, label %5

5:                                                ; preds = %3
  %6 = getelementptr inbounds nuw i8, ptr %0, i64 120
  %7 = load i32, ptr %0, align 8, !tbaa !3
  %.not = icmp eq i32 %7, 31153
  br i1 %.not, label %8, label %gz_zero.exit.thread

8:                                                ; preds = %5
  %9 = getelementptr inbounds nuw i8, ptr %0, i64 108
  %10 = load i32, ptr %9, align 4, !tbaa !13
  %.not25 = icmp eq i32 %10, 0
  br i1 %.not25, label %11, label %gz_zero.exit.thread

11:                                               ; preds = %8
  %12 = getelementptr inbounds nuw i8, ptr %0, i64 88
  %13 = load i32, ptr %12, align 8, !tbaa !26
  %14 = icmp eq i32 %1, %13
  br i1 %14, label %15, label %19

15:                                               ; preds = %11
  %16 = getelementptr inbounds nuw i8, ptr %0, i64 92
  %17 = load i32, ptr %16, align 4, !tbaa !27
  %18 = icmp eq i32 %2, %17
  br i1 %18, label %gz_zero.exit.thread, label %19

19:                                               ; preds = %15, %11
  %20 = getelementptr inbounds nuw i8, ptr %0, i64 104
  %21 = load i32, ptr %20, align 8, !tbaa !15
  %.not26 = icmp eq i32 %21, 0
  br i1 %.not26, label %gz_zero.exit, label %22

22:                                               ; preds = %19
  store i32 0, ptr %20, align 8, !tbaa !15
  %23 = getelementptr inbounds nuw i8, ptr %0, i64 96
  %24 = load i64, ptr %23, align 8, !tbaa !16
  %25 = getelementptr inbounds nuw i8, ptr %0, i64 128
  %26 = load i32, ptr %25, align 8, !tbaa !17
  %.not.i = icmp eq i32 %26, 0
  br i1 %.not.i, label %30, label %27

27:                                               ; preds = %22
  %28 = tail call fastcc i32 @gz_comp(ptr noundef nonnull %0, i32 noundef 0)
  %29 = icmp eq i32 %28, -1
  br i1 %29, label %gz_zero.exit.thread, label %30

30:                                               ; preds = %27, %22
  %.not2224.i = icmp eq i64 %24, 0
  br i1 %.not2224.i, label %gz_zero.exit, label %.lr.ph.i

.lr.ph.i:                                         ; preds = %30
  %31 = getelementptr inbounds nuw i8, ptr %0, i64 24
  %32 = getelementptr inbounds nuw i8, ptr %0, i64 32
  %33 = getelementptr inbounds nuw i8, ptr %0, i64 16
  br label %36

34:                                               ; preds = %44
  %35 = sub nsw i64 %.02026.i, %.pre-phi.i
  %.not22.i = icmp eq i64 %35, 0
  br i1 %.not22.i, label %gz_zero.exit, label %36, !llvm.loop !18

36:                                               ; preds = %34, %.lr.ph.i
  %.02026.i = phi i64 [ %24, %.lr.ph.i ], [ %35, %34 ]
  %.not2325.i = phi i1 [ false, %.lr.ph.i ], [ true, %34 ]
  %37 = load i32, ptr %31, align 8, !tbaa !14
  %38 = zext i32 %37 to i64
  %39 = tail call i64 @llvm.smin.i64(i64 %.02026.i, i64 %38)
  %40 = trunc i64 %39 to i32
  br i1 %.not2325.i, label %._crit_edge.i, label %41

._crit_edge.i:                                    ; preds = %36
  %.pre.i = and i64 %39, 4294967295
  br label %44

41:                                               ; preds = %36
  %42 = load ptr, ptr %32, align 8, !tbaa !20
  %43 = and i64 %39, 4294967295
  tail call void @llvm.memset.p0.i64(ptr align 1 %42, i8 0, i64 %43, i1 false)
  br label %44

44:                                               ; preds = %41, %._crit_edge.i
  %.pre-phi.i = phi i64 [ %.pre.i, %._crit_edge.i ], [ %43, %41 ]
  store i32 %40, ptr %25, align 8, !tbaa !17
  %45 = load ptr, ptr %32, align 8, !tbaa !20
  store ptr %45, ptr %6, align 8, !tbaa !21
  %46 = load i64, ptr %33, align 8, !tbaa !22
  %47 = add nsw i64 %46, %.pre-phi.i
  store i64 %47, ptr %33, align 8, !tbaa !22
  %48 = tail call fastcc i32 @gz_comp(ptr noundef nonnull %0, i32 noundef 0)
  %49 = icmp eq i32 %48, -1
  br i1 %49, label %gz_zero.exit.thread, label %34

gz_zero.exit:                                     ; preds = %34, %30, %19
  %50 = getelementptr inbounds nuw i8, ptr %0, i64 24
  %51 = load i32, ptr %50, align 8, !tbaa !14
  %.not27 = icmp eq i32 %51, 0
  br i1 %.not27, label %62, label %52

52:                                               ; preds = %gz_zero.exit
  %53 = getelementptr inbounds nuw i8, ptr %0, i64 128
  %54 = load i32, ptr %53, align 8, !tbaa !17
  %.not28 = icmp eq i32 %54, 0
  br i1 %.not28, label %60, label %55

55:                                               ; preds = %52
  %56 = tail call fastcc i32 @gz_comp(ptr noundef %0, i32 noundef 1)
  %57 = icmp eq i32 %56, -1
  br i1 %57, label %58, label %60

58:                                               ; preds = %55
  %59 = load i32, ptr %9, align 4, !tbaa !13
  br label %gz_zero.exit.thread

60:                                               ; preds = %55, %52
  %61 = tail call i32 @deflateParams(ptr noundef nonnull %6, i32 noundef %1, i32 noundef %2) #14
  br label %62

62:                                               ; preds = %60, %gz_zero.exit
  store i32 %1, ptr %12, align 8, !tbaa !26
  %63 = getelementptr inbounds nuw i8, ptr %0, i64 92
  store i32 %2, ptr %63, align 4, !tbaa !27
  br label %gz_zero.exit.thread

gz_zero.exit.thread:                              ; preds = %44, %27, %15, %5, %8, %3, %62, %58
  %.0 = phi i32 [ %59, %58 ], [ 0, %62 ], [ -2, %3 ], [ -2, %8 ], [ -2, %5 ], [ 0, %15 ], [ -1, %27 ], [ -1, %44 ]
  ret i32 %.0
}